target datalayout = "e-m:e-p270:32:32-p271:32:32-p272:64:64-i64:64-i128:128-f80:128-n8:16:32:64-S128"
target triple = "x86_64-pc-linux-gnu"

@.str.2 = private unnamed_addr constant [11 x i8] c"dynahash.c\00", align 1
@num_seq_scans = internal global i32 0, align 4
@.str.12 = private unnamed_addr constant [46 x i8] c"leaked hash_seq_search scan for hash table %p\00", align 1
@seq_scan_tables = internal global [100 x ptr] zeroinitializer, align 16
@seq_scan_level = internal global [100 x i32] zeroinitializer, align 16
@__func__.AtEOSubXact_HashTables = private unnamed_addr constant [23 x i8] c"AtEOSubXact_HashTables\00", align 1

; Function Attrs: nounwind uwtable
define dso_local void @AtEOSubXact_HashTables(i1 noundef zeroext %0, i32 noundef %1) #0 {
  %3 = alloca i8, align 1
  %4 = alloca i32, align 4
  %5 = alloca i32, align 4
  %6 = zext i1 %0 to i8
  store i8 %6, ptr %3, align 1
  store i32 %1, ptr %4, align 4
  call void @llvm.lifetime.start.p0(i64 4, ptr %5) #11
  %7 = load i32, ptr @num_seq_scans, align 4
  %8 = sub i32 %7, 1
  store i32 %8, ptr %5, align 4
  br label %9

9:                                                ; preds = %57, %2
  %10 = load i32, ptr %5, align 4
  %11 = icmp sge i32 %10, 0
  br i1 %11, label %12, label %60

12:                                               ; preds = %9
  %13 = load i32, ptr %5, align 4
  %14 = sext i32 %13 to i64
  %15 = getelementptr inbounds [100 x i32], ptr @seq_scan_level, i64 0, i64 %14
  %16 = load i32, ptr %15, align 4
  %17 = load i32, ptr %4, align 4
  %18 = icmp sge i32 %16, %17
  br i1 %18, label %19, label %56

19:                                               ; preds = %12
  %20 = load i8, ptr %3, align 1, !range !12, !noundef !13
  %21 = trunc i8 %20 to i1
  br i1 %21, label %22, label %37

22:                                               ; preds = %19
  br label %23

23:                                               ; preds = %22
  br i1 false, label %24, label %26

24:                                               ; preds = %23
  %25 = call zeroext i1 @errstart_cold(i32 noundef 19, ptr noundef null) #13
  br i1 %25, label %28, label %34

26:                                               ; preds = %23
  %27 = call zeroext i1 @errstart(i32 noundef 19, ptr noundef null)
  br i1 %27, label %28, label %34

28:                                               ; preds = %26, %24
  %29 = load i32, ptr %5, align 4
  %30 = sext i32 %29 to i64
  %31 = getelementptr inbounds [100 x ptr], ptr @seq_scan_tables, i64 0, i64 %30
  %32 = load ptr, ptr %31, align 8
  %33 = call i32 (ptr, ...) @errmsg_internal(ptr noundef @.str.12, ptr noundef %32)
  call void @errfinish(ptr noundef @.str.2, i32 noundef 1953, ptr noundef @__func__.AtEOSubXact_HashTables)
  br label %34

34:                                               ; preds = %28, %26, %24
  br label %35

35:                                               ; preds = %34
  br label %36

36:                                               ; preds = %35
  br label %37

37:                                               ; preds = %36, %19
  %38 = load i32, ptr @num_seq_scans, align 4
  %39 = sub i32 %38, 1
  %40 = sext i32 %39 to i64
  %41 = getelementptr inbounds [100 x ptr], ptr @seq_scan_tables, i64 0, i64 %40
  %42 = load ptr, ptr %41, align 8
  %43 = load i32, ptr %5, align 4
  %44 = sext i32 %43 to i64
  %45 = getelementptr inbounds [100 x ptr], ptr @seq_scan_tables, i64 0, i64 %44
  store ptr %42, ptr %45, align 8
  %46 = load i32, ptr @num_seq_scans, align 4
  %47 = sub i32 %46, 1
  %48 = sext i32 %47 to i64
  %49 = getelementptr inbounds [100 x i32], ptr @seq_scan_level, i64 0, i64 %48
  %50 = load i32, ptr %49, align 4
  %51 = load i32, ptr %5, align 4
  %52 = sext i32 %51 to i64
  %53 = getelementptr inbounds [100 x i32], ptr @seq_scan_level, i64 0, i64 %52
  store i32 %50, ptr %53, align 4
  %54 = load i32, ptr @num_seq_scans, align 4
  %55 = add i32 %54, -1
  store i32 %55, ptr @num_seq_scans, align 4
  br label %56

56:                                               ; preds = %37, %12
  br label %57

57:                                               ; preds = %56
  %58 = load i32, ptr %5, align 4
  %59 = add i32 %58, -1
  store i32 %59, ptr %5, align 4
  br label %9, !llvm.loop !36

60:                                               ; preds = %9
  call void @llvm.lifetime.end.p0(i64 4, ptr %5) #11
  ret void
}