; Function Attrs: nounwind uwtable
define dso_local void @AtEOSubXact_HashTables(i1 noundef zeroext %0, i32 noundef %1) local_unnamed_addr #0 {
  %3 = load i32, ptr @num_seq_scans, align 4
  %.08 = add i32 %3, -1
  %4 = icmp sgt i32 %.08, -1
  br i1 %4, label %.lr.ph, label %._crit_edge

.lr.ph:                                           ; preds = %2
  %5 = zext nneg i32 %.08 to i64
  br i1 %0, label %.lr.ph.split.us, label %.lr.ph.split

.lr.ph.split.us:                                  ; preds = %.lr.ph, %23
  %indvars.iv12 = phi i64 [ %indvars.iv.next13, %23 ], [ %5, %.lr.ph ]
  %6 = getelementptr inbounds nuw [100 x i32], ptr @seq_scan_level, i64 0, i64 %indvars.iv12
  %7 = load i32, ptr %6, align 4
  %.not.us = icmp slt i32 %7, %1
  br i1 %.not.us, label %23, label %8

8:                                                ; preds = %.lr.ph.split.us
  %9 = tail call zeroext i1 @errstart(i32 noundef 19, ptr noundef null) #17
  br i1 %9, label %10, label %14

10:                                               ; preds = %8
  %11 = getelementptr inbounds nuw [100 x ptr], ptr @seq_scan_tables, i64 0, i64 %indvars.iv12
  %12 = load ptr, ptr %11, align 8
  %13 = tail call i32 (ptr, ...) @errmsg_internal(ptr noundef nonnull @.str.12, ptr noundef %12) #17
  tail call void @errfinish(ptr noundef nonnull @.str.2, i32 noundef 1953, ptr noundef nonnull @__func__.AtEOSubXact_HashTables) #17
  br label %14

14:                                               ; preds = %10, %8
  %15 = load i32, ptr @num_seq_scans, align 4
  %16 = add i32 %15, -1
  %17 = sext i32 %16 to i64
  %18 = getelementptr inbounds [100 x ptr], ptr @seq_scan_tables, i64 0, i64 %17
  %19 = load ptr, ptr %18, align 8
  %20 = getelementptr inbounds nuw [100 x ptr], ptr @seq_scan_tables, i64 0, i64 %indvars.iv12
  store ptr %19, ptr %20, align 8
  %21 = getelementptr inbounds [100 x i32], ptr @seq_scan_level, i64 0, i64 %17
  %22 = load i32, ptr %21, align 4
  store i32 %22, ptr %6, align 4
  store i32 %16, ptr @num_seq_scans, align 4
  br label %23

23:                                               ; preds = %14, %.lr.ph.split.us
  %indvars.iv.next13 = add nsw i64 %indvars.iv12, -1
  %24 = icmp sgt i64 %indvars.iv12, 0
  br i1 %24, label %.lr.ph.split.us, label %._crit_edge, !llvm.loop !34

.lr.ph.split:                                     ; preds = %.lr.ph, %36
  %indvars.iv = phi i64 [ %indvars.iv.next, %36 ], [ %5, %.lr.ph ]
  %25 = phi i32 [ %37, %36 ], [ %3, %.lr.ph ]
  %26 = getelementptr inbounds nuw [100 x i32], ptr @seq_scan_level, i64 0, i64 %indvars.iv
  %27 = load i32, ptr %26, align 4
  %.not = icmp slt i32 %27, %1
  br i1 %.not, label %36, label %28

28:                                               ; preds = %.lr.ph.split
  %29 = add i32 %25, -1
  %30 = sext i32 %29 to i64
  %31 = getelementptr inbounds [100 x ptr], ptr @seq_scan_tables, i64 0, i64 %30
  %32 = load ptr, ptr %31, align 8
  %33 = getelementptr inbounds nuw [100 x ptr], ptr @seq_scan_tables, i64 0, i64 %indvars.iv
  store ptr %32, ptr %33, align 8
  %34 = getelementptr inbounds [100 x i32], ptr @seq_scan_level, i64 0, i64 %30
  %35 = load i32, ptr %34, align 4
  store i32 %35, ptr %26, align 4
  store i32 %29, ptr @num_seq_scans, align 4
  br label %36

36:                                               ; preds = %.lr.ph.split, %28
  %37 = phi i32 [ %25, %.lr.ph.split ], [ %29, %28 ]
  %indvars.iv.next = add nsw i64 %indvars.iv, -1
  %38 = icmp sgt i64 %indvars.iv, 0
  br i1 %38, label %.lr.ph.split, label %._crit_edge, !llvm.loop !34

._crit_edge:                                      ; preds = %36, %23, %2
  ret void
}